; Function Attrs: mustprogress nounwind uwtable
define hidden void @_ZN20VM_HeapWalkOperationC2EP11JvmtiTagMap6Handle20BasicHeapWalkContextPKvP13GrowableArrayIlE(ptr noundef nonnull align 8 dereferenceable(108) %0, ptr noundef %1, ptr %2, ptr nocapture noundef readonly byval(%class.BasicHeapWalkContext) align 8 %3, ptr noundef %4, ptr noundef %5) unnamed_addr #0 align 2 {
  %7 = getelementptr inbounds i8, ptr %0, i64 8
  store ptr null, ptr %7, align 8
  store ptr getelementptr inbounds inrange(-16, 80) (i8, ptr @_ZTV20VM_HeapWalkOperation, i64 16), ptr %0, align 8
  %8 = getelementptr inbounds i8, ptr %0, i64 32
  store ptr null, ptr %8, align 8
  %9 = getelementptr inbounds i8, ptr %0, i64 48
  store i32 32, ptr %9, align 8
  %10 = tail call noundef ptr @_Z12AllocateHeapm8MEMFLAGSN17AllocFailStrategy13AllocFailEnumE(i64 noundef 256, i8 noundef zeroext 23, i32 noundef 0) #14
  tail call void @llvm.memset.p0.i64(ptr noundef nonnull align 8 dereferenceable(256) %10, i8 0, i64 256, i1 false)
  %11 = getelementptr inbounds i8, ptr %0, i64 56
  store ptr %10, ptr %11, align 8
  %12 = getelementptr inbounds i8, ptr %0, i64 64
  store i32 0, ptr %12, align 8
  %13 = getelementptr inbounds i8, ptr %0, i64 68
  store i32 8192, ptr %13, align 4
  %14 = getelementptr inbounds i8, ptr %0, i64 72
  %15 = getelementptr inbounds i8, ptr %0, i64 88
  tail call void @llvm.memset.p0.i64(ptr noundef nonnull align 8 dereferenceable(16) %14, i8 0, i64 16, i1 false)
  store i64 -1, ptr %15, align 8
  %16 = getelementptr inbounds i8, ptr %0, i64 16
  store i8 0, ptr %16, align 8
  %17 = getelementptr inbounds i8, ptr %0, i64 24
  store ptr %1, ptr %17, align 8
  store ptr %2, ptr %8, align 8
  %18 = getelementptr inbounds i8, ptr %3, i64 24
  %19 = load ptr, ptr %18, align 8
  %20 = icmp ne ptr %19, null
  %21 = getelementptr inbounds i8, ptr %0, i64 104
  %22 = zext i1 %20 to i8
  store i8 %22, ptr %21, align 8
  %23 = getelementptr inbounds i8, ptr %0, i64 105
  store i8 0, ptr %23, align 1
  %24 = getelementptr inbounds i8, ptr %0, i64 106
  store i8 0, ptr %24, align 2
  %25 = getelementptr inbounds i8, ptr %0, i64 107
  store i8 0, ptr %25, align 1
  %26 = tail call noundef ptr @_ZN6AnyObjnwEm8MEMFLAGS(i64 noundef 24, i8 noundef zeroext 23) #14
  %27 = icmp eq ptr %26, null
  br i1 %27, label %_ZN20VM_HeapWalkOperation18create_visit_stackEv.exit, label %28

28:                                               ; preds = %6
  %29 = tail call noundef ptr @_ZN27GrowableArrayCHeapAllocator8allocateEii8MEMFLAGS(i32 noundef 4000, i32 noundef 8, i8 noundef zeroext 23) #14
  store i32 0, ptr %26, align 4
  %30 = getelementptr inbounds i8, ptr %26, i64 4
  store i32 4000, ptr %30, align 4
  %31 = getelementptr inbounds i8, ptr %26, i64 8
  store ptr %29, ptr %31, align 8
  tail call void @llvm.memset.p0.i64(ptr noundef nonnull align 8 dereferenceable(32000) %29, i8 0, i64 32000, i1 false)
  %32 = getelementptr inbounds i8, ptr %26, i64 16
  store i64 47, ptr %32, align 8
  br label %_ZN20VM_HeapWalkOperation18create_visit_stackEv.exit

_ZN20VM_HeapWalkOperation18create_visit_stackEv.exit: ; preds = %6, %28
  %33 = getelementptr inbounds i8, ptr %0, i64 40
  store ptr %26, ptr %33, align 8
  %34 = getelementptr inbounds i8, ptr %0, i64 96
  store ptr %5, ptr %34, align 8
  store ptr %1, ptr @_ZN15CallbackInvoker8_tag_mapE, align 8
  store ptr %26, ptr @_ZN15CallbackInvoker12_visit_stackE, align 8
  store ptr %4, ptr @_ZN15CallbackInvoker10_user_dataE, align 8
  call void @llvm.memcpy.p0.p0.i64(ptr noundef nonnull align 8 dereferenceable(48) @_ZN15CallbackInvoker14_basic_contextE, ptr noundef nonnull align 8 dereferenceable(48) %3, i64 48, i1 false)
  store i8 0, ptr @_ZN15CallbackInvoker17_advanced_contextE, align 8
  store i32 0, ptr @_ZN15CallbackInvoker15_heap_walk_typeE, align 4
  store ptr %9, ptr @_ZN15CallbackInvoker7_bitsetE, align 8
  ret void
}